target datalayout = "e-m:e-p270:32:32-p271:32:32-p272:64:64-i64:64-i128:128-f80:128-n8:16:32:64-S128"
target triple = "x86_64-pc-linux-gnu"

@.str.66 = private unnamed_addr constant [4 x i8] c"all\00", align 1
@.str.135 = private unnamed_addr constant [9 x i8] c"explicit\00", align 1
@.str.137 = private unnamed_addr constant [20 x i8] c"safe.bareRepository\00", align 1

; Function Attrs: nounwind uwtable
define internal i32 @allowed_bare_repo_cb(ptr noundef %0, ptr noundef %1, ptr noundef %2, ptr noundef %3) #0 {
  %5 = alloca i32, align 4
  %6 = alloca ptr, align 8
  %7 = alloca ptr, align 8
  %8 = alloca ptr, align 8
  %9 = alloca ptr, align 8
  %10 = alloca ptr, align 8
  %11 = alloca i32, align 4
  store ptr %0, ptr %6, align 8, !tbaa !4
  store ptr %1, ptr %7, align 8, !tbaa !4
  store ptr %2, ptr %8, align 8, !tbaa !53
  store ptr %3, ptr %9, align 8, !tbaa !55
  call void @llvm.lifetime.start.p0(i64 8, ptr %10) #13
  %12 = load ptr, ptr %9, align 8, !tbaa !55
  store ptr %12, ptr %10, align 8, !tbaa !55
  %13 = load ptr, ptr %6, align 8, !tbaa !4
  %14 = call i32 @strcasecmp(ptr noundef %13, ptr noundef @.str.137) #14
  %15 = icmp ne i32 %14, 0
  br i1 %15, label %16, label %17

16:                                               ; preds = %4
  store i32 0, ptr %5, align 4
  store i32 1, ptr %11, align 4
  br label %30

17:                                               ; preds = %4
  %18 = load ptr, ptr %7, align 8, !tbaa !4
  %19 = call i32 @strcmp(ptr noundef %18, ptr noundef @.str.135) #14
  %20 = icmp ne i32 %19, 0
  br i1 %20, label %23, label %21

21:                                               ; preds = %17
  %22 = load ptr, ptr %10, align 8, !tbaa !55
  store i32 0, ptr %22, align 4, !tbaa !9
  store i32 0, ptr %5, align 4
  store i32 1, ptr %11, align 4
  br label %30

23:                                               ; preds = %17
  %24 = load ptr, ptr %7, align 8, !tbaa !4
  %25 = call i32 @strcmp(ptr noundef %24, ptr noundef @.str.66) #14
  %26 = icmp ne i32 %25, 0
  br i1 %26, label %29, label %27

27:                                               ; preds = %23
  %28 = load ptr, ptr %10, align 8, !tbaa !55
  store i32 1, ptr %28, align 4, !tbaa !9
  store i32 0, ptr %5, align 4
  store i32 1, ptr %11, align 4
  br label %30

29:                                               ; preds = %23
  store i32 -1, ptr %5, align 4
  store i32 1, ptr %11, align 4
  br label %30

30:                                               ; preds = %29, %27, %21, %16
  call void @llvm.lifetime.end.p0(i64 8, ptr %10) #13
  %31 = load i32, ptr %5, align 4
  ret i32 %31
}