; Function Attrs: mustprogress nofree nounwind willreturn memory(read, argmem: readwrite) uwtable
define internal range(i32 -1, 1) i32 @allowed_bare_repo_cb(ptr noundef readonly captures(none) %0, ptr noundef readonly captures(none) %1, ptr readnone captures(none) %2, ptr noundef writeonly captures(none) %3) #19 {
  %5 = tail call i32 @strcasecmp(ptr noundef %0, ptr noundef nonnull @.str.137) #24
  %.not = icmp eq i32 %5, 0
  br i1 %.not, label %6, label %10

6:                                                ; preds = %4
  %7 = tail call i32 @strcmp(ptr noundef nonnull dereferenceable(1) %1, ptr noundef nonnull dereferenceable(9) @.str.135) #24
  %.not6 = icmp eq i32 %7, 0
  br i1 %.not6, label %.sink.split, label %8

8:                                                ; preds = %6
  %9 = tail call i32 @strcmp(ptr noundef nonnull dereferenceable(1) %1, ptr noundef nonnull dereferenceable(4) @.str.66) #24
  %.not7 = icmp eq i32 %9, 0
  br i1 %.not7, label %.sink.split, label %10

.sink.split:                                      ; preds = %8, %6
  %.sink = phi i32 [ 0, %6 ], [ 1, %8 ]
  store i32 %.sink, ptr %3, align 4, !tbaa !7
  br label %10

10:                                               ; preds = %.sink.split, %8, %4
  %.0 = phi i32 [ 0, %4 ], [ -1, %8 ], [ 0, %.sink.split ]
  ret i32 %.0
}